target datalayout = "e-m:e-p270:32:32-p271:32:32-p272:64:64-i64:64-i128:128-f80:128-n8:16:32:64-S128"
target triple = "x86_64-pc-linux-gnu"

%struct.fstate = type { ptr, ptr, ptr }

@stderr = external global ptr, align 8
@.str.4 = private unnamed_addr constant [58 x i8] c"integer overflow when trying to allocate %zu * %zu bytes\0A\00", align 1
@.str.5 = private unnamed_addr constant [49 x i8] c"out of memory when trying to allocate %zu bytes\0A\00", align 1

; Function Attrs: inlinehint nounwind uwtable
define internal ptr @gv_calloc(i64 noundef %0, i64 noundef %1) #2 {
  %3 = alloca i64, align 8
  %4 = alloca i64, align 8
  %5 = alloca ptr, align 8
  store i64 %0, ptr %3, align 8, !tbaa !56
  store i64 %1, ptr %4, align 8, !tbaa !56
  %6 = load i64, ptr %3, align 8, !tbaa !56
  %7 = icmp ugt i64 %6, 0
  br i1 %7, label %8, label %18

8:                                                ; preds = %2
  %9 = load i64, ptr %3, align 8, !tbaa !56
  %10 = udiv i64 -1, %9
  %11 = load i64, ptr %4, align 8, !tbaa !56
  %12 = icmp ult i64 %10, %11
  br i1 %12, label %13, label %18

13:                                               ; preds = %8
  %14 = load ptr, ptr @stderr, align 8, !tbaa !58
  %15 = load i64, ptr %3, align 8, !tbaa !56
  %16 = load i64, ptr %4, align 8, !tbaa !56
  %17 = call i32 (ptr, ptr, ...) @fprintf(ptr noundef %14, ptr noundef @.str.4, i64 noundef %15, i64 noundef %16) #12
  call void @graphviz_exit(i32 noundef 1) #13
  unreachable

18:                                               ; preds = %8, %2
  call void @llvm.lifetime.start.p0(i64 8, ptr %5) #12
  %19 = load i64, ptr %3, align 8, !tbaa !56
  %20 = load i64, ptr %4, align 8, !tbaa !56
  %21 = call noalias ptr @calloc(i64 noundef %19, i64 noundef %20) #14
  store ptr %21, ptr %5, align 8, !tbaa !25
  %22 = load i64, ptr %3, align 8, !tbaa !56
  %23 = icmp ugt i64 %22, 0
  br i1 %23, label %24, label %36

24:                                               ; preds = %18
  %25 = load i64, ptr %4, align 8, !tbaa !56
  %26 = icmp ugt i64 %25, 0
  br i1 %26, label %27, label %36

27:                                               ; preds = %24
  %28 = load ptr, ptr %5, align 8, !tbaa !25
  %29 = icmp eq ptr %28, null
  br i1 %29, label %30, label %36

30:                                               ; preds = %27
  %31 = load ptr, ptr @stderr, align 8, !tbaa !58
  %32 = load i64, ptr %3, align 8, !tbaa !56
  %33 = load i64, ptr %4, align 8, !tbaa !56
  %34 = mul i64 %32, %33
  %35 = call i32 (ptr, ptr, ...) @fprintf(ptr noundef %31, ptr noundef @.str.5, i64 noundef %34) #12
  call void @graphviz_exit(i32 noundef 1) #13
  unreachable

36:                                               ; preds = %27, %24, %18
  %37 = load ptr, ptr %5, align 8, !tbaa !25
  call void @llvm.lifetime.end.p0(i64 8, ptr %5) #12
  ret ptr %37
}

; Function Attrs: nounwind uwtable
define ptr @get_triangles(ptr noundef %0, i32 noundef %1, ptr noundef %2) #0 {
  %4 = alloca ptr, align 8
  %5 = alloca ptr, align 8
  %6 = alloca i32, align 4
  %7 = alloca ptr, align 8
  %8 = alloca ptr, align 8
  %9 = alloca i32, align 4
  %10 = alloca %struct.fstate, align 8
  %11 = alloca i32, align 4
  store ptr %0, ptr %5, align 8, !tbaa !3
  store i32 %1, ptr %6, align 4, !tbaa !8
  store ptr %2, ptr %7, align 8, !tbaa !10
  call void @llvm.lifetime.start.p0(i64 8, ptr %8) #12
  call void @llvm.lifetime.start.p0(i64 4, ptr %9) #12
  store i32 0, ptr %9, align 4, !tbaa !8
  call void @llvm.lifetime.start.p0(i64 24, ptr %10) #12
  %12 = load i32, ptr %6, align 4, !tbaa !8
  %13 = icmp sle i32 %12, 2
  br i1 %13, label %14, label %15

14:                                               ; preds = %3
  store ptr null, ptr %4, align 8
  store i32 1, ptr %11, align 4
  br label %35

15:                                               ; preds = %3
  %16 = load ptr, ptr %5, align 8, !tbaa !3
  %17 = load i32, ptr %6, align 4, !tbaa !8
  %18 = call ptr @tri(ptr noundef %16, ptr noundef null, i32 noundef %17, ptr noundef null, i32 noundef 0, i32 noundef 0)
  store ptr %18, ptr %8, align 8, !tbaa !12
  %19 = load ptr, ptr %8, align 8, !tbaa !12
  %20 = icmp ne ptr %19, null
  br i1 %20, label %22, label %21

21:                                               ; preds = %15
  store ptr null, ptr %4, align 8
  store i32 1, ptr %11, align 4
  br label %35

22:                                               ; preds = %15
  %23 = load ptr, ptr %8, align 8, !tbaa !12
  call void @gts_surface_foreach_face(ptr noundef %23, ptr noundef @cntFace, ptr noundef %9)
  %24 = load i32, ptr %9, align 4, !tbaa !8
  %25 = mul nsw i32 3, %24
  %26 = sext i32 %25 to i64
  %27 = call ptr @gv_calloc(i64 noundef %26, i64 noundef 4)
  %28 = getelementptr inbounds nuw %struct.fstate, ptr %10, i32 0, i32 1
  store ptr %27, ptr %28, align 8, !tbaa !65
  %29 = load ptr, ptr %8, align 8, !tbaa !12
  call void @gts_surface_foreach_face(ptr noundef %29, ptr noundef @addTri, ptr noundef %10)
  %30 = load ptr, ptr %8, align 8, !tbaa !12
  call void @gts_object_destroy(ptr noundef %30)
  %31 = load i32, ptr %9, align 4, !tbaa !8
  %32 = load ptr, ptr %7, align 8, !tbaa !10
  store i32 %31, ptr %32, align 4, !tbaa !8
  %33 = getelementptr inbounds nuw %struct.fstate, ptr %10, i32 0, i32 1
  %34 = load ptr, ptr %33, align 8, !tbaa !65
  store ptr %34, ptr %4, align 8
  store i32 1, ptr %11, align 4
  br label %35

35:                                               ; preds = %22, %21, %14
  call void @llvm.lifetime.end.p0(i64 24, ptr %10) #12
  call void @llvm.lifetime.end.p0(i64 4, ptr %9) #12
  call void @llvm.lifetime.end.p0(i64 8, ptr %8) #12
  %36 = load ptr, ptr %4, align 8
  ret ptr %36
}