; Function Attrs: nounwind uwtable
define ptr @get_triangles(ptr noundef readonly captures(none) %0, i32 noundef %1, ptr noundef writeonly captures(none) %2) local_unnamed_addr #0 {
  %4 = alloca i32, align 4
  %5 = alloca %struct.fstate, align 8
  call void @llvm.lifetime.start.p0(i64 4, ptr nonnull %4) #19
  store i32 0, ptr %4, align 4, !tbaa !10
  call void @llvm.lifetime.start.p0(i64 24, ptr nonnull %5) #19
  %6 = icmp slt i32 %1, 3
  br i1 %6, label %29, label %7

7:                                                ; preds = %3
  %8 = tail call fastcc ptr @tri(ptr noundef %0, ptr noundef null, i32 noundef %1, ptr noundef null, i32 noundef 0, i32 noundef 0)
  %.not = icmp eq ptr %8, null
  br i1 %.not, label %29, label %9

9:                                                ; preds = %7
  call void @gts_surface_foreach_face(ptr noundef nonnull %8, ptr noundef nonnull @cntFace, ptr noundef nonnull %4) #19
  %10 = load i32, ptr %4, align 4, !tbaa !10
  %11 = mul nsw i32 %10, 3
  %12 = sext i32 %11 to i64
  %.not.i = icmp eq i32 %10, 0
  br i1 %.not.i, label %.thread.i, label %14

.thread.i:                                        ; preds = %9
  %13 = call noalias ptr @calloc(i64 noundef 0, i64 noundef 4) #22
  br label %gv_calloc.exit

14:                                               ; preds = %9
  %mul.ov.i = icmp slt i32 %10, 0
  br i1 %mul.ov.i, label %15, label %18

15:                                               ; preds = %14
  %16 = load ptr, ptr @stderr, align 8, !tbaa !11
  %17 = call i32 (ptr, ptr, ...) @fprintf(ptr noundef %16, ptr noundef nonnull @.str.4, i64 noundef range(i64 -2147483648, 2147483648) %12, i64 noundef 4) #20
  call fastcc void @graphviz_exit() #21
  unreachable

18:                                               ; preds = %14
  %19 = call noalias ptr @calloc(i64 noundef range(i64 -2147483648, 2147483648) %12, i64 noundef 4) #22
  %20 = icmp eq ptr %19, null
  br i1 %20, label %21, label %gv_calloc.exit

21:                                               ; preds = %18
  %22 = load ptr, ptr @stderr, align 8, !tbaa !11
  %23 = shl nuw nsw i64 %12, 2
  %24 = call i32 (ptr, ptr, ...) @fprintf(ptr noundef %22, ptr noundef nonnull @.str.5, i64 noundef %23) #20
  call fastcc void @graphviz_exit() #21
  unreachable

gv_calloc.exit:                                   ; preds = %.thread.i, %18
  %25 = phi ptr [ %13, %.thread.i ], [ %19, %18 ]
  %26 = getelementptr inbounds nuw i8, ptr %5, i64 8
  store ptr %25, ptr %26, align 8, !tbaa !53
  call void @gts_surface_foreach_face(ptr noundef nonnull %8, ptr noundef nonnull @addTri, ptr noundef nonnull %5) #19
  call void @gts_object_destroy(ptr noundef nonnull %8) #19
  %27 = load i32, ptr %4, align 4, !tbaa !10
  store i32 %27, ptr %2, align 4, !tbaa !10
  %28 = load ptr, ptr %26, align 8, !tbaa !53
  br label %29

29:                                               ; preds = %7, %3, %gv_calloc.exit
  %.0 = phi ptr [ %28, %gv_calloc.exit ], [ null, %3 ], [ null, %7 ]
  call void @llvm.lifetime.end.p0(i64 24, ptr nonnull %5) #19
  call void @llvm.lifetime.end.p0(i64 4, ptr nonnull %4) #19
  ret ptr %.0
}